target datalayout = "e-m:e-p270:32:32-p271:32:32-p272:64:64-i64:64-i128:128-f80:128-n8:16:32:64-S128"
target triple = "x86_64-pc-linux-gnu"

%class.Register = type { i32 }
%class.MachNode = type { %class.Node.base, i8, i16, ptr }
%class.Node.base = type <{ ptr, ptr, ptr, i32, i32, i32, i32, i32, i32, i32 }>
%class.loadConNNode = type { %class.MachNode, [2 x ptr] }

@g_assert_poison = external global ptr, align 8
@.str = private unnamed_addr constant [30 x i8] c"src/hotspot/cpu/x86/x86_64.ad\00", align 1
@_ZL5noreg = internal constant %class.Register { i32 -1 }, align 4

; Function Attrs: mustprogress nounwind uwtable
define linkonce_odr hidden void @_ZN8RegisterC2Eib(ptr noundef nonnull align 4 dereferenceable(4) %0, i32 noundef %1, i1 noundef zeroext %2) unnamed_addr #1 comdat align 2 {
  %4 = alloca ptr, align 8
  %5 = alloca i32, align 4
  %6 = alloca i8, align 1
  store ptr %0, ptr %4, align 8
  store i32 %1, ptr %5, align 4
  %7 = zext i1 %2 to i8
  store i8 %7, ptr %6, align 1
  %8 = load ptr, ptr %4, align 8
  %9 = getelementptr inbounds %class.Register, ptr %8, i32 0, i32 0
  %10 = load i32, ptr %5, align 4
  store i32 %10, ptr %9, align 4
  ret void
}

; Function Attrs: mustprogress nounwind uwtable
define linkonce_odr hidden i32 @_Z11as_Registeri(i32 noundef %0) #1 comdat {
  %2 = alloca %class.Register, align 4
  %3 = alloca i32, align 4
  store i32 %0, ptr %3, align 4
  %4 = load i32, ptr %3, align 4
  %5 = icmp sle i32 0, %4
  br i1 %5, label %6, label %11

6:                                                ; preds = %1
  %7 = load i32, ptr %3, align 4
  %8 = icmp slt i32 %7, 32
  br i1 %8, label %9, label %11

9:                                                ; preds = %6
  %10 = load i32, ptr %3, align 4
  call void @_ZN8RegisterC2Eib(ptr noundef nonnull align 4 dereferenceable(4) %2, i32 noundef %10, i1 noundef zeroext false)
  br label %12

11:                                               ; preds = %6, %1
  call void @llvm.memcpy.p0.p0.i64(ptr align 4 %2, ptr align 4 @_ZL5noreg, i64 4, i1 false)
  br label %12

12:                                               ; preds = %11, %9
  %13 = getelementptr inbounds %class.Register, ptr %2, i32 0, i32 0
  %14 = load i32, ptr %13, align 4
  ret i32 %14
}

; Function Attrs: mustprogress nounwind uwtable
define linkonce_odr hidden i32 @_ZNK8MachOper11as_RegisterEP13PhaseRegAllocPK4Node(ptr noundef nonnull align 8 dereferenceable(8) %0, ptr noundef %1, ptr noundef %2) #1 comdat align 2 {
  %4 = alloca %class.Register, align 4
  %5 = alloca ptr, align 8
  %6 = alloca ptr, align 8
  %7 = alloca ptr, align 8
  store ptr %0, ptr %5, align 8
  store ptr %1, ptr %6, align 8
  store ptr %2, ptr %7, align 8
  %8 = load ptr, ptr %5, align 8
  %9 = load ptr, ptr %6, align 8
  %10 = load ptr, ptr %7, align 8
  %11 = load ptr, ptr %8, align 8
  %12 = getelementptr inbounds ptr, ptr %11, i64 4
  %13 = load ptr, ptr %12, align 8
  %14 = call noundef i32 %13(ptr noundef nonnull align 8 dereferenceable(8) %8, ptr noundef %9, ptr noundef %10)
  %15 = call i32 @_Z11as_Registeri(i32 noundef %14)
  %16 = getelementptr inbounds %class.Register, ptr %4, i32 0, i32 0
  store i32 %15, ptr %16, align 4
  %17 = getelementptr inbounds %class.Register, ptr %4, i32 0, i32 0
  %18 = load i32, ptr %17, align 4
  ret i32 %18
}

; Function Attrs: mustprogress nounwind uwtable
define linkonce_odr hidden noundef ptr @_ZNK12loadConNNode10opnd_arrayEj(ptr noundef nonnull align 8 dereferenceable(80) %0, i32 noundef %1) #1 comdat align 2 {
  %3 = alloca ptr, align 8
  %4 = alloca i32, align 4
  store ptr %0, ptr %3, align 8
  store i32 %1, ptr %4, align 4
  %5 = load ptr, ptr %3, align 8
  %6 = getelementptr inbounds %class.loadConNNode, ptr %5, i32 0, i32 1
  %7 = load i32, ptr %4, align 4
  %8 = zext i32 %7 to i64
  %9 = getelementptr inbounds [2 x ptr], ptr %6, i64 0, i64 %8
  %10 = load ptr, ptr %9, align 8
  ret ptr %10
}

; Function Attrs: mustprogress nounwind uwtable
define hidden void @_ZNK12loadConNNode4emitEP17C2_MacroAssemblerP13PhaseRegAlloc(ptr noundef nonnull align 8 dereferenceable(80) %0, ptr noundef %1, ptr noundef %2) unnamed_addr #1 align 2 {
  %4 = alloca ptr, align 8
  %5 = alloca ptr, align 8
  %6 = alloca ptr, align 8
  %7 = alloca i32, align 4
  %8 = alloca i32, align 4
  %9 = alloca ptr, align 8
  %10 = alloca %class.Register, align 4
  store ptr %0, ptr %4, align 8
  store ptr %1, ptr %5, align 8
  store ptr %2, ptr %6, align 8
  %11 = load ptr, ptr %4, align 8
  store i32 1, ptr %7, align 4
  store i32 1, ptr %8, align 4
  %12 = call noundef ptr @_ZNK12loadConNNode10opnd_arrayEj(ptr noundef nonnull align 8 dereferenceable(80) %11, i32 noundef 1)
  %13 = load ptr, ptr %12, align 8
  %14 = getelementptr inbounds ptr, ptr %13, i64 6
  %15 = load ptr, ptr %14, align 8
  %16 = call noundef i64 %15(ptr noundef nonnull align 8 dereferenceable(8) %12)
  %17 = inttoptr i64 %16 to ptr
  store ptr %17, ptr %9, align 8
  %18 = load ptr, ptr %9, align 8
  %19 = icmp eq ptr %18, null
  br i1 %19, label %20, label %24

20:                                               ; preds = %3
  br label %21

21:                                               ; preds = %20
  %22 = load ptr, ptr @g_assert_poison, align 8
  store i8 88, ptr %22, align 1
  call void @_Z28report_should_not_reach_herePKci(ptr noundef @.str, i32 noundef 4861) #8
  unreachable

23:                                               ; No predecessors!
  br label %38

24:                                               ; preds = %3
  %25 = load ptr, ptr %5, align 8
  %26 = call noundef ptr @_ZNK12loadConNNode10opnd_arrayEj(ptr noundef nonnull align 8 dereferenceable(80) %11, i32 noundef 0)
  %27 = load ptr, ptr %6, align 8
  %28 = call i32 @_ZNK8MachOper11as_RegisterEP13PhaseRegAllocPK4Node(ptr noundef nonnull align 8 dereferenceable(8) %26, ptr noundef %27, ptr noundef %11)
  %29 = getelementptr inbounds %class.Register, ptr %10, i32 0, i32 0
  store i32 %28, ptr %29, align 4
  %30 = call noundef ptr @_ZNK12loadConNNode10opnd_arrayEj(ptr noundef nonnull align 8 dereferenceable(80) %11, i32 noundef 1)
  %31 = load ptr, ptr %30, align 8
  %32 = getelementptr inbounds ptr, ptr %31, i64 6
  %33 = load ptr, ptr %32, align 8
  %34 = call noundef i64 %33(ptr noundef nonnull align 8 dereferenceable(8) %30)
  %35 = inttoptr i64 %34 to ptr
  %36 = getelementptr inbounds %class.Register, ptr %10, i32 0, i32 0
  %37 = load i32, ptr %36, align 4
  call void @_ZN14MacroAssembler14set_narrow_oopE8RegisterP8_jobject(ptr noundef nonnull align 8 dereferenceable(40) %25, i32 %37, ptr noundef %35)
  br label %38

38:                                               ; preds = %24, %23
  ret void
}